target datalayout = "e-m:e-p270:32:32-p271:32:32-p272:64:64-i64:64-i128:128-f80:128-n8:16:32:64-S128"
target triple = "x86_64-pc-linux-gnu"

%class.DecodeAsItem = type { ptr, ptr, ptr, i32, %class.QString, ptr, %class.QString, %class.QString, ptr }
%class.QString = type { %struct.QArrayDataPointer }
%struct.QArrayDataPointer = type { ptr, ptr, i64 }
%class.QByteArrayView = type { i64, ptr }
%struct.decode_as_s = type { ptr, ptr, i32, i32, ptr, ptr, ptr, ptr, ptr, ptr, ptr }

@_ZTV12DecodeAsItem = unnamed_addr constant { [4 x ptr] } { [4 x ptr] [ptr null, ptr @_ZTI12DecodeAsItem, ptr @_ZN12DecodeAsItemD1Ev, ptr @_ZN12DecodeAsItemD0Ev] }, align 8
@_ZL13DEFAULT_TABLE = internal global ptr @.str.29, align 8
@_ZL16DEFAULT_UI_TABLE = internal global ptr @.str.30, align 8
@.str = private unnamed_addr constant [1 x i8] zeroinitializer, align 1
@.str.1 = private unnamed_addr constant [7 x i8] c"(none)\00", align 1

; Function Attrs: mustprogress nounwind uwtable
define linkonce_odr void @_ZSt4swapIxENSt9enable_ifIXsr6__and_ISt6__not_ISt15__is_tuple_likeIT_EESt21is_move_constructibleIS3_ESt18is_move_assignableIS3_EEE5valueEvE4typeERS3_SC_(ptr noundef nonnull align 8 dereferenceable(8) %0, ptr noundef nonnull align 8 dereferenceable(8) %1) #1 comdat {
  %3 = alloca ptr, align 8
  %4 = alloca ptr, align 8
  %5 = alloca i64, align 8
  store ptr %0, ptr %3, align 8
  store ptr %1, ptr %4, align 8
  %6 = load ptr, ptr %3, align 8
  %7 = load i64, ptr %6, align 8
  store i64 %7, ptr %5, align 8
  %8 = load ptr, ptr %4, align 8
  %9 = load i64, ptr %8, align 8
  %10 = load ptr, ptr %3, align 8
  store i64 %9, ptr %10, align 8
  %11 = load i64, ptr %5, align 8
  %12 = load ptr, ptr %4, align 8
  store i64 %11, ptr %12, align 8
  ret void
}

; Function Attrs: mustprogress nounwind uwtable
define linkonce_odr void @_Z11qt_ptr_swapIDsEvRPT_S2_(ptr noundef nonnull align 8 dereferenceable(8) %0, ptr noundef nonnull align 8 dereferenceable(8) %1) #1 comdat {
  %3 = alloca ptr, align 8
  %4 = alloca ptr, align 8
  %5 = alloca ptr, align 8
  store ptr %0, ptr %3, align 8
  store ptr %1, ptr %4, align 8
  %6 = load ptr, ptr %3, align 8
  %7 = load ptr, ptr %6, align 8
  store ptr %7, ptr %5, align 8
  %8 = load ptr, ptr %4, align 8
  %9 = load ptr, ptr %8, align 8
  %10 = load ptr, ptr %3, align 8
  store ptr %9, ptr %10, align 8
  %11 = load ptr, ptr %5, align 8
  %12 = load ptr, ptr %4, align 8
  store ptr %11, ptr %12, align 8
  ret void
}

; Function Attrs: mustprogress nounwind uwtable
define linkonce_odr void @_Z11qt_ptr_swapI15QTypedArrayDataIDsEEvRPT_S4_(ptr noundef nonnull align 8 dereferenceable(8) %0, ptr noundef nonnull align 8 dereferenceable(8) %1) #1 comdat {
  %3 = alloca ptr, align 8
  %4 = alloca ptr, align 8
  %5 = alloca ptr, align 8
  store ptr %0, ptr %3, align 8
  store ptr %1, ptr %4, align 8
  %6 = load ptr, ptr %3, align 8
  %7 = load ptr, ptr %6, align 8
  store ptr %7, ptr %5, align 8
  %8 = load ptr, ptr %4, align 8
  %9 = load ptr, ptr %8, align 8
  %10 = load ptr, ptr %3, align 8
  store ptr %9, ptr %10, align 8
  %11 = load ptr, ptr %5, align 8
  %12 = load ptr, ptr %4, align 8
  store ptr %11, ptr %12, align 8
  ret void
}

; Function Attrs: mustprogress nounwind uwtable
define linkonce_odr void @_ZN17QArrayDataPointerIDsE4swapERS0_(ptr noundef nonnull align 8 dereferenceable(24) %0, ptr noundef nonnull align 8 dereferenceable(24) %1) #1 comdat align 2 {
  %3 = alloca ptr, align 8
  %4 = alloca ptr, align 8
  store ptr %0, ptr %3, align 8
  store ptr %1, ptr %4, align 8
  %5 = load ptr, ptr %3, align 8
  %6 = getelementptr inbounds %struct.QArrayDataPointer, ptr %5, i32 0, i32 0
  %7 = load ptr, ptr %4, align 8
  %8 = getelementptr inbounds %struct.QArrayDataPointer, ptr %7, i32 0, i32 0
  call void @_Z11qt_ptr_swapI15QTypedArrayDataIDsEEvRPT_S4_(ptr noundef nonnull align 8 dereferenceable(8) %6, ptr noundef nonnull align 8 dereferenceable(8) %8) #14
  %9 = getelementptr inbounds %struct.QArrayDataPointer, ptr %5, i32 0, i32 1
  %10 = load ptr, ptr %4, align 8
  %11 = getelementptr inbounds %struct.QArrayDataPointer, ptr %10, i32 0, i32 1
  call void @_Z11qt_ptr_swapIDsEvRPT_S2_(ptr noundef nonnull align 8 dereferenceable(8) %9, ptr noundef nonnull align 8 dereferenceable(8) %11) #14
  %12 = getelementptr inbounds %struct.QArrayDataPointer, ptr %5, i32 0, i32 2
  %13 = load ptr, ptr %4, align 8
  %14 = getelementptr inbounds %struct.QArrayDataPointer, ptr %13, i32 0, i32 2
  call void @_ZSt4swapIxENSt9enable_ifIXsr6__and_ISt6__not_ISt15__is_tuple_likeIT_EESt21is_move_constructibleIS3_ESt18is_move_assignableIS3_EEE5valueEvE4typeERS3_SC_(ptr noundef nonnull align 8 dereferenceable(8) %12, ptr noundef nonnull align 8 dereferenceable(8) %14) #14
  ret void
}

; Function Attrs: mustprogress nounwind uwtable
define linkonce_odr noundef ptr @_ZN14QByteArrayView10castHelperEPKc(ptr noundef %0) #1 comdat align 2 {
  %2 = alloca ptr, align 8
  store ptr %0, ptr %2, align 8
  %3 = load ptr, ptr %2, align 8
  ret ptr %3
}

; Function Attrs: mustprogress nounwind uwtable
define linkonce_odr noundef i64 @_ZNSt11char_traitsIcE6lengthEPKc(ptr noundef %0) #1 comdat align 2 {
  %2 = alloca ptr, align 8
  store ptr %0, ptr %2, align 8
  %3 = load ptr, ptr %2, align 8
  %4 = call i64 @strlen(ptr noundef %3) #14
  ret i64 %4
}

; Function Attrs: mustprogress nounwind uwtable
define linkonce_odr void @_Z5qSwapIDsEvR17QArrayDataPointerIT_ES3_(ptr noundef nonnull align 8 dereferenceable(24) %0, ptr noundef nonnull align 8 dereferenceable(24) %1) #1 comdat {
  %3 = alloca ptr, align 8
  %4 = alloca ptr, align 8
  store ptr %0, ptr %3, align 8
  store ptr %1, ptr %4, align 8
  %5 = load ptr, ptr %3, align 8
  %6 = load ptr, ptr %4, align 8
  call void @_ZN17QArrayDataPointerIDsE4swapERS0_(ptr noundef nonnull align 8 dereferenceable(24) %5, ptr noundef nonnull align 8 dereferenceable(24) %6) #14
  ret void
}

; Function Attrs: mustprogress nounwind uwtable
define linkonce_odr void @_ZN17QArrayDataPointerIDsEC2Ev(ptr noundef nonnull align 8 dereferenceable(24) %0) unnamed_addr #1 comdat align 2 {
  %2 = alloca ptr, align 8
  store ptr %0, ptr %2, align 8
  %3 = load ptr, ptr %2, align 8
  %4 = getelementptr inbounds %struct.QArrayDataPointer, ptr %3, i32 0, i32 0
  store ptr null, ptr %4, align 8
  %5 = getelementptr inbounds %struct.QArrayDataPointer, ptr %3, i32 0, i32 1
  store ptr null, ptr %5, align 8
  %6 = getelementptr inbounds %struct.QArrayDataPointer, ptr %3, i32 0, i32 2
  store i64 0, ptr %6, align 8
  ret void
}

; Function Attrs: noreturn nounwind uwtable
define linkonce_odr hidden void @__clang_call_terminate(ptr noundef %0) #6 comdat {
  %2 = call ptr @__cxa_begin_catch(ptr %0) #14
  call void @_ZSt9terminatev() #17
  unreachable
}

; Function Attrs: mustprogress nounwind uwtable
define linkonce_odr void @_ZN14QByteArrayViewC2IcTnNSt9enable_ifIXsr9QtPrivate20IsCompatibleByteTypeIT_EE5valueEbE4typeELb1EEEPKS2_x(ptr noundef nonnull align 8 dereferenceable(16) %0, ptr noundef %1, i64 noundef %2) unnamed_addr #1 comdat align 2 {
  %4 = alloca ptr, align 8
  %5 = alloca ptr, align 8
  %6 = alloca i64, align 8
  store ptr %0, ptr %4, align 8
  store ptr %1, ptr %5, align 8
  store i64 %2, ptr %6, align 8
  %7 = load ptr, ptr %4, align 8
  %8 = getelementptr inbounds %class.QByteArrayView, ptr %7, i32 0, i32 0
  %9 = load i64, ptr %6, align 8
  store i64 %9, ptr %8, align 8
  %10 = getelementptr inbounds %class.QByteArrayView, ptr %7, i32 0, i32 1
  %11 = load ptr, ptr %5, align 8
  %12 = call noundef ptr @_ZN14QByteArrayView10castHelperEPKc(ptr noundef %11) #14
  store ptr %12, ptr %10, align 8
  ret void
}

; Function Attrs: mustprogress nounwind uwtable
define linkonce_odr noundef i64 @_ZN14QByteArrayView19lengthHelperPointerIcEExPKT_(ptr noundef %0) #1 comdat align 2 personality ptr @__gxx_personality_v0 {
  %2 = alloca ptr, align 8
  store ptr %0, ptr %2, align 8
  %3 = load ptr, ptr %2, align 8
  %4 = invoke noundef i64 @_ZNSt11char_traitsIcE6lengthEPKc(ptr noundef %3)
          to label %5 unwind label %6

5:                                                ; preds = %1
  ret i64 %4

6:                                                ; preds = %1
  %7 = landingpad { ptr, i32 }
          catch ptr null
  %8 = extractvalue { ptr, i32 } %7, 0
  call void @__clang_call_terminate(ptr %8) #17
  unreachable
}

; Function Attrs: mustprogress nounwind uwtable
define linkonce_odr void @_ZN7QStringC2EOS_(ptr noundef nonnull align 8 dereferenceable(24) %0, ptr noundef nonnull align 8 dereferenceable(24) %1) unnamed_addr #1 comdat align 2 {
  %3 = alloca ptr, align 8
  %4 = alloca ptr, align 8
  store ptr %0, ptr %3, align 8
  store ptr %1, ptr %4, align 8
  %5 = load ptr, ptr %3, align 8
  %6 = getelementptr inbounds %class.QString, ptr %5, i32 0, i32 0
  call void @_ZN17QArrayDataPointerIDsEC2Ev(ptr noundef nonnull align 8 dereferenceable(24) %6) #14
  %7 = getelementptr inbounds %class.QString, ptr %5, i32 0, i32 0
  %8 = load ptr, ptr %4, align 8
  %9 = getelementptr inbounds %class.QString, ptr %8, i32 0, i32 0
  call void @_Z5qSwapIDsEvR17QArrayDataPointerIT_ES3_(ptr noundef nonnull align 8 dereferenceable(24) %7, ptr noundef nonnull align 8 dereferenceable(24) %9) #14
  ret void
}

; Function Attrs: mustprogress nounwind uwtable
define linkonce_odr void @_ZN14QByteArrayViewC2IPKcTnNSt9enable_ifIXsr9QtPrivate28IsCompatibleByteArrayPointerIT_EE5valueEbE4typeELb1EEERKS4_(ptr noundef nonnull align 8 dereferenceable(16) %0, ptr noundef nonnull align 8 dereferenceable(8) %1) unnamed_addr #1 comdat align 2 personality ptr @__gxx_personality_v0 {
  %3 = alloca ptr, align 8
  %4 = alloca ptr, align 8
  store ptr %0, ptr %3, align 8
  store ptr %1, ptr %4, align 8
  %5 = load ptr, ptr %3, align 8
  %6 = load ptr, ptr %4, align 8
  %7 = load ptr, ptr %6, align 8
  %8 = load ptr, ptr %4, align 8
  %9 = load ptr, ptr %8, align 8
  %10 = icmp ne ptr %9, null
  br i1 %10, label %11, label %15

11:                                               ; preds = %2
  %12 = load ptr, ptr %4, align 8
  %13 = load ptr, ptr %12, align 8
  %14 = call noundef i64 @_ZN14QByteArrayView19lengthHelperPointerIcEExPKT_(ptr noundef %13) #14
  br label %16

15:                                               ; preds = %2
  br label %16

16:                                               ; preds = %15, %11
  %17 = phi i64 [ %14, %11 ], [ 0, %15 ]
  invoke void @_ZN14QByteArrayViewC2IcTnNSt9enable_ifIXsr9QtPrivate20IsCompatibleByteTypeIT_EE5valueEbE4typeELb1EEEPKS2_x(ptr noundef nonnull align 8 dereferenceable(16) %5, ptr noundef %7, i64 noundef %17)
          to label %18 unwind label %19

18:                                               ; preds = %16
  ret void

19:                                               ; preds = %16
  %20 = landingpad { ptr, i32 }
          catch ptr null
  %21 = extractvalue { ptr, i32 } %20, 0
  call void @__clang_call_terminate(ptr %21) #17
  unreachable
}

; Function Attrs: mustprogress uwtable
define linkonce_odr void @_ZN7QStringC2EPKc(ptr noundef nonnull align 8 dereferenceable(24) %0, ptr noundef %1) unnamed_addr #0 comdat align 2 {
  %3 = alloca ptr, align 8
  %4 = alloca ptr, align 8
  %5 = alloca %class.QString, align 8
  %6 = alloca %class.QByteArrayView, align 8
  store ptr %0, ptr %3, align 8
  store ptr %1, ptr %4, align 8
  %7 = load ptr, ptr %3, align 8
  call void @_ZN14QByteArrayViewC2IPKcTnNSt9enable_ifIXsr9QtPrivate28IsCompatibleByteArrayPointerIT_EE5valueEbE4typeELb1EEERKS4_(ptr noundef nonnull align 8 dereferenceable(16) %6, ptr noundef nonnull align 8 dereferenceable(8) %4) #14
  %8 = getelementptr inbounds { i64, ptr }, ptr %6, i32 0, i32 0
  %9 = load i64, ptr %8, align 8
  %10 = getelementptr inbounds { i64, ptr }, ptr %6, i32 0, i32 1
  %11 = load ptr, ptr %10, align 8
  call void @_ZN7QString8fromUtf8E14QByteArrayView(ptr dead_on_unwind writable sret(%class.QString) align 8 %5, i64 %9, ptr %11)
  call void @_ZN7QStringC2EOS_(ptr noundef nonnull align 8 dereferenceable(24) %7, ptr noundef nonnull align 8 dereferenceable(24) %5) #14
  call void @_ZN7QStringD2Ev(ptr noundef nonnull align 8 dereferenceable(24) %5) #14
  ret void
}

; Function Attrs: mustprogress uwtable
define void @_ZN12DecodeAsItemC2EPK11decode_as_sPKv(ptr noundef nonnull align 8 dereferenceable(120) %0, ptr noundef %1, ptr noundef %2) unnamed_addr #0 align 2 personality ptr @__gxx_personality_v0 {
  %4 = alloca ptr, align 8
  %5 = alloca ptr, align 8
  %6 = alloca ptr, align 8
  %7 = alloca ptr, align 8
  %8 = alloca i32, align 4
  store ptr %0, ptr %4, align 8
  store ptr %1, ptr %5, align 8
  store ptr %2, ptr %6, align 8
  %9 = load ptr, ptr %4, align 8
  store ptr getelementptr inbounds ({ [4 x ptr] }, ptr @_ZTV12DecodeAsItem, i32 0, i32 0, i32 2), ptr %9, align 8
  %10 = getelementptr inbounds %class.DecodeAsItem, ptr %9, i32 0, i32 1
  %11 = load ptr, ptr @_ZL13DEFAULT_TABLE, align 8
  store ptr %11, ptr %10, align 8
  %12 = getelementptr inbounds %class.DecodeAsItem, ptr %9, i32 0, i32 2
  %13 = load ptr, ptr @_ZL16DEFAULT_UI_TABLE, align 8
  store ptr %13, ptr %12, align 8
  %14 = getelementptr inbounds %class.DecodeAsItem, ptr %9, i32 0, i32 3
  store i32 0, ptr %14, align 8
  %15 = getelementptr inbounds %class.DecodeAsItem, ptr %9, i32 0, i32 4
  call void @_ZN7QStringC2EPKc(ptr noundef nonnull align 8 dereferenceable(24) %15, ptr noundef @.str)
  %16 = getelementptr inbounds %class.DecodeAsItem, ptr %9, i32 0, i32 5
  store ptr null, ptr %16, align 8
  %17 = getelementptr inbounds %class.DecodeAsItem, ptr %9, i32 0, i32 6
  invoke void @_ZN7QStringC2EPKc(ptr noundef nonnull align 8 dereferenceable(24) %17, ptr noundef @.str.1)
          to label %18 unwind label %25

18:                                               ; preds = %3
  %19 = getelementptr inbounds %class.DecodeAsItem, ptr %9, i32 0, i32 7
  invoke void @_ZN7QStringC2EPKc(ptr noundef nonnull align 8 dereferenceable(24) %19, ptr noundef @.str.1)
          to label %20 unwind label %29

20:                                               ; preds = %18
  %21 = getelementptr inbounds %class.DecodeAsItem, ptr %9, i32 0, i32 8
  store ptr null, ptr %21, align 8
  %22 = load ptr, ptr %5, align 8
  %23 = icmp eq ptr %22, null
  br i1 %23, label %24, label %33

24:                                               ; preds = %20
  br label %38

25:                                               ; preds = %3
  %26 = landingpad { ptr, i32 }
          cleanup
  %27 = extractvalue { ptr, i32 } %26, 0
  store ptr %27, ptr %7, align 8
  %28 = extractvalue { ptr, i32 } %26, 1
  store i32 %28, ptr %8, align 4
  br label %44

29:                                               ; preds = %18
  %30 = landingpad { ptr, i32 }
          cleanup
  %31 = extractvalue { ptr, i32 } %30, 0
  store ptr %31, ptr %7, align 8
  %32 = extractvalue { ptr, i32 } %30, 1
  store i32 %32, ptr %8, align 4
  br label %43

33:                                               ; preds = %20
  %34 = load ptr, ptr %5, align 8
  %35 = getelementptr inbounds %struct.decode_as_s, ptr %34, i32 0, i32 1
  %36 = load ptr, ptr %35, align 8
  %37 = load ptr, ptr %6, align 8
  invoke void @_ZN12DecodeAsItem4initEPKcPKv(ptr noundef nonnull align 8 dereferenceable(120) %9, ptr noundef %36, ptr noundef %37)
          to label %38 unwind label %39

38:                                               ; preds = %33, %24
  ret void

39:                                               ; preds = %33
  %40 = landingpad { ptr, i32 }
          cleanup
  %41 = extractvalue { ptr, i32 } %40, 0
  store ptr %41, ptr %7, align 8
  %42 = extractvalue { ptr, i32 } %40, 1
  store i32 %42, ptr %8, align 4
  call void @_ZN7QStringD2Ev(ptr noundef nonnull align 8 dereferenceable(24) %19) #14
  br label %43

43:                                               ; preds = %39, %29
  call void @_ZN7QStringD2Ev(ptr noundef nonnull align 8 dereferenceable(24) %17) #14
  br label %44

44:                                               ; preds = %43, %25
  call void @_ZN7QStringD2Ev(ptr noundef nonnull align 8 dereferenceable(24) %15) #14
  br label %45

45:                                               ; preds = %44
  %46 = load ptr, ptr %7, align 8
  %47 = load i32, ptr %8, align 4
  %48 = insertvalue { ptr, i32 } poison, ptr %46, 0
  %49 = insertvalue { ptr, i32 } %48, i32 %47, 1
  resume { ptr, i32 } %49
}