; Function Attrs: mustprogress uwtable
define void @_ZN12DecodeAsItemC2EPK11decode_as_sPKv(ptr noundef nonnull align 8 dereferenceable(120) %0, ptr noundef readonly %1, ptr noundef %2) unnamed_addr #0 align 2 personality ptr @__gxx_personality_v0 {
  %4 = alloca %class.QString, align 16
  %5 = alloca %class.QString, align 16
  %6 = alloca %class.QString, align 16
  store ptr getelementptr inbounds ({ [4 x ptr] }, ptr @_ZTV12DecodeAsItem, i64 0, i32 0, i64 2), ptr %0, align 8
  %7 = getelementptr inbounds i8, ptr %0, i64 8
  store ptr @.str.29, ptr %7, align 8
  %8 = getelementptr inbounds i8, ptr %0, i64 16
  store ptr @.str.30, ptr %8, align 8
  %9 = getelementptr inbounds i8, ptr %0, i64 24
  store i32 0, ptr %9, align 8
  %10 = getelementptr inbounds i8, ptr %0, i64 32
  call void @llvm.lifetime.start.p0(i64 24, ptr nonnull %6)
  call void @_ZN7QString8fromUtf8E14QByteArrayView(ptr dead_on_unwind nonnull writable sret(%class.QString) align 8 %6, i64 0, ptr nonnull @.str)
  %11 = load <2 x ptr>, ptr %6, align 16
  store <2 x ptr> %11, ptr %10, align 8
  %12 = getelementptr inbounds i8, ptr %0, i64 48
  %13 = getelementptr inbounds i8, ptr %6, i64 16
  %14 = load i64, ptr %13, align 16
  store i64 %14, ptr %12, align 8
  call void @llvm.lifetime.end.p0(i64 24, ptr nonnull %6)
  %15 = getelementptr inbounds i8, ptr %0, i64 56
  store ptr null, ptr %15, align 8
  %16 = getelementptr inbounds i8, ptr %0, i64 64
  call void @llvm.lifetime.start.p0(i64 24, ptr nonnull %5)
  invoke void @_ZN7QString8fromUtf8E14QByteArrayView(ptr dead_on_unwind nonnull writable sret(%class.QString) align 8 %5, i64 6, ptr nonnull @.str.1)
          to label %17 unwind label %30

17:                                               ; preds = %3
  %18 = load <2 x ptr>, ptr %5, align 16
  store <2 x ptr> %18, ptr %16, align 8
  %19 = getelementptr inbounds i8, ptr %0, i64 80
  %20 = getelementptr inbounds i8, ptr %5, i64 16
  %21 = load i64, ptr %20, align 16
  store i64 %21, ptr %19, align 8
  call void @llvm.lifetime.end.p0(i64 24, ptr nonnull %5)
  %22 = getelementptr inbounds i8, ptr %0, i64 88
  call void @llvm.lifetime.start.p0(i64 24, ptr nonnull %4)
  invoke void @_ZN7QString8fromUtf8E14QByteArrayView(ptr dead_on_unwind nonnull writable sret(%class.QString) align 8 %4, i64 6, ptr nonnull @.str.1)
          to label %23 unwind label %32

23:                                               ; preds = %17
  %24 = load <2 x ptr>, ptr %4, align 16
  store <2 x ptr> %24, ptr %22, align 8
  %25 = getelementptr inbounds i8, ptr %0, i64 104
  %26 = getelementptr inbounds i8, ptr %4, i64 16
  %27 = load i64, ptr %26, align 16
  store i64 %27, ptr %25, align 8
  call void @llvm.lifetime.end.p0(i64 24, ptr nonnull %4)
  %28 = getelementptr inbounds i8, ptr %0, i64 112
  store ptr null, ptr %28, align 8
  %29 = icmp eq ptr %1, null
  br i1 %29, label %37, label %34

30:                                               ; preds = %3
  %31 = landingpad { ptr, i32 }
          cleanup
  br label %41

32:                                               ; preds = %17
  %33 = landingpad { ptr, i32 }
          cleanup
  br label %40

34:                                               ; preds = %23
  %35 = getelementptr inbounds i8, ptr %1, i64 8
  %36 = load ptr, ptr %35, align 8
  invoke void @_ZN12DecodeAsItem4initEPKcPKv(ptr noundef nonnull align 8 dereferenceable(120) %0, ptr noundef %36, ptr noundef %2)
          to label %37 unwind label %38

37:                                               ; preds = %23, %34
  ret void

38:                                               ; preds = %34
  %39 = landingpad { ptr, i32 }
          cleanup
  call void @_ZN7QStringD2Ev(ptr noundef nonnull align 8 dereferenceable(24) %22) #19
  br label %40

40:                                               ; preds = %38, %32
  %.pn = phi { ptr, i32 } [ %39, %38 ], [ %33, %32 ]
  call void @_ZN7QStringD2Ev(ptr noundef nonnull align 8 dereferenceable(24) %16) #19
  br label %41

41:                                               ; preds = %40, %30
  %.pn.pn = phi { ptr, i32 } [ %.pn, %40 ], [ %31, %30 ]
  call void @_ZN7QStringD2Ev(ptr noundef nonnull align 8 dereferenceable(24) %10) #19
  resume { ptr, i32 } %.pn.pn
}